; Function Attrs: mustprogress nofree norecurse nosync nounwind willreturn memory(readwrite, inaccessiblemem: none) uwtable
define dso_local void @_ZN9CrowdTool12handleToggleEv(ptr nocapture noundef nonnull readonly align 8 dereferenceable(28) %0) unnamed_addr #13 align 2 {
  %2 = getelementptr inbounds i8, ptr %0, i64 16
  %3 = load ptr, ptr %2, align 8
  %.not = icmp eq ptr %3, null
  br i1 %.not, label %9, label %4

4:                                                ; preds = %1
  %5 = getelementptr inbounds i8, ptr %3, i64 101000
  %6 = load i8, ptr %5, align 8
  %7 = and i8 %6, 1
  %8 = xor i8 %7, 1
  store i8 %8, ptr %5, align 8
  br label %9

9:                                                ; preds = %1, %4
  ret void
}